target datalayout = "e-m:e-p270:32:32-p271:32:32-p272:64:64-i64:64-i128:128-f80:128-n8:16:32:64-S128"
target triple = "x86_64-pc-linux-gnu"

%struct.H5CX_dxpl_cache_t = type { i64, ptr, ptr, i32, [3 x double], i64, i32, %struct.H5Z_cb_t, ptr, %struct.H5T_vlen_alloc_info_t, %struct.H5T_conv_cb_t, i32, i32, i32, i8 }
%struct.H5Z_cb_t = type { ptr, ptr }
%struct.H5T_vlen_alloc_info_t = type { ptr, ptr, ptr, ptr }
%struct.H5T_conv_cb_t = type { ptr, ptr }
%struct.H5CX_node_t = type { %struct.H5CX_t, ptr }
%struct.H5CX_t = type { i64, ptr, i64, ptr, i64, ptr, i64, ptr, i64, ptr, i64, ptr, i64, i32, i64, i8, ptr, i8, ptr, i8, i32, i8, [3 x double], i8, i64, i8, i32, i8, %struct.H5Z_cb_t, i8, ptr, i8, %struct.H5T_vlen_alloc_info_t, i8, %struct.H5T_conv_cb_t, i8, i32, i8, i8, i8, i32, i8, i8, i32, i8, i8, i32, i8, i32, i8, i64, i8, i8, i8, i8, i8, ptr, i8, ptr, i8, i32, i8, i32, i8, %struct.H5VL_connector_prop_t, i8, ptr, i8 }
%struct.H5VL_connector_prop_t = type { i64, ptr }

@H5CX_def_dxpl_cache = internal global %struct.H5CX_dxpl_cache_t zeroinitializer, align 8
@H5P_LST_DATASET_XFER_ID_g = external global i64, align 8
@.str = private unnamed_addr constant [98 x i8] c"generated/home/dtcxzyw/WorkSpace/Projects/compilers/llvm-opt-benchmark/bench/hdf5/hdf5/src/H5CX.c\00", align 1
@H5E_CONTEXT_g = external global i64, align 8
@H5E_BADTYPE_g = external global i64, align 8
@H5E_CANTGET_g = external global i64, align 8
@.str.29 = private unnamed_addr constant [22 x i8] c"no_selection_io_cause\00", align 1
@H5CX_head_g = internal global ptr null, align 8
@.str.56 = private unnamed_addr constant [24 x i8] c"can't get property list\00", align 1
@.str.75 = private unnamed_addr constant [38 x i8] c"can't retrieve value from API context\00", align 1
@__func__.H5CX_get_no_selection_io_cause = private unnamed_addr constant [31 x i8] c"H5CX_get_no_selection_io_cause\00", align 1

; Function Attrs: nounwind uwtable
define i32 @H5CX_get_no_selection_io_cause(ptr noundef %0) #0 {
  %2 = alloca ptr, align 8
  %3 = alloca ptr, align 8
  %4 = alloca i32, align 4
  %5 = alloca i8, align 1
  store ptr %0, ptr %2, align 8
  store ptr null, ptr %3, align 8
  store i32 0, ptr %4, align 4
  store i8 0, ptr %5, align 1
  store ptr @H5CX_head_g, ptr %3, align 8
  %6 = load ptr, ptr %3, align 8
  %7 = load ptr, ptr %6, align 8
  %8 = getelementptr inbounds %struct.H5CX_node_t, ptr %7, i32 0, i32 0
  %9 = getelementptr inbounds %struct.H5CX_t, ptr %8, i32 0, i32 42
  %10 = load i8, ptr %9, align 1
  %11 = trunc i8 %10 to i1
  br i1 %11, label %100, label %12

12:                                               ; preds = %1
  %13 = load ptr, ptr %3, align 8
  %14 = load ptr, ptr %13, align 8
  %15 = getelementptr inbounds %struct.H5CX_node_t, ptr %14, i32 0, i32 0
  %16 = getelementptr inbounds %struct.H5CX_t, ptr %15, i32 0, i32 41
  %17 = load i8, ptr %16, align 8
  %18 = trunc i8 %17 to i1
  br i1 %18, label %100, label %19

19:                                               ; preds = %12
  %20 = load ptr, ptr %3, align 8
  %21 = load ptr, ptr %20, align 8
  %22 = getelementptr inbounds %struct.H5CX_node_t, ptr %21, i32 0, i32 0
  %23 = getelementptr inbounds %struct.H5CX_t, ptr %22, i32 0, i32 0
  %24 = load i64, ptr %23, align 8
  %25 = load i64, ptr @H5P_LST_DATASET_XFER_ID_g, align 8
  %26 = icmp eq i64 %24, %25
  br i1 %26, label %27, label %32

27:                                               ; preds = %19
  %28 = load ptr, ptr %3, align 8
  %29 = load ptr, ptr %28, align 8
  %30 = getelementptr inbounds %struct.H5CX_node_t, ptr %29, i32 0, i32 0
  %31 = getelementptr inbounds %struct.H5CX_t, ptr %30, i32 0, i32 40
  call void @llvm.memcpy.p0.p0.i64(ptr align 4 %31, ptr align 4 getelementptr inbounds (%struct.H5CX_dxpl_cache_t, ptr @H5CX_def_dxpl_cache, i32 0, i32 12), i64 4, i1 false)
  br label %95

32:                                               ; preds = %19
  %33 = load ptr, ptr %3, align 8
  %34 = load ptr, ptr %33, align 8
  %35 = getelementptr inbounds %struct.H5CX_node_t, ptr %34, i32 0, i32 0
  %36 = getelementptr inbounds %struct.H5CX_t, ptr %35, i32 0, i32 1
  %37 = load ptr, ptr %36, align 8
  %38 = icmp eq ptr null, %37
  br i1 %38, label %39, label %67

39:                                               ; preds = %32
  %40 = load ptr, ptr %3, align 8
  %41 = load ptr, ptr %40, align 8
  %42 = getelementptr inbounds %struct.H5CX_node_t, ptr %41, i32 0, i32 0
  %43 = getelementptr inbounds %struct.H5CX_t, ptr %42, i32 0, i32 0
  %44 = load i64, ptr %43, align 8
  %45 = call ptr @H5I_object(i64 noundef %44)
  %46 = load ptr, ptr %3, align 8
  %47 = load ptr, ptr %46, align 8
  %48 = getelementptr inbounds %struct.H5CX_node_t, ptr %47, i32 0, i32 0
  %49 = getelementptr inbounds %struct.H5CX_t, ptr %48, i32 0, i32 1
  store ptr %45, ptr %49, align 8
  %50 = icmp eq ptr null, %45
  br i1 %50, label %51, label %66

51:                                               ; preds = %39
  br label %52

52:                                               ; preds = %51
  br label %53

53:                                               ; preds = %52
  br label %54

54:                                               ; preds = %53
  %55 = load i64, ptr @H5E_CONTEXT_g, align 8
  %56 = load i64, ptr @H5E_BADTYPE_g, align 8
  %57 = call i32 (ptr, ptr, i32, i64, i64, ptr, ...) @H5E_printf_stack(ptr noundef @.str, ptr noundef @__func__.H5CX_get_no_selection_io_cause, i32 noundef 2542, i64 noundef %55, i64 noundef %56, ptr noundef @.str.56)
  br label %58

58:                                               ; preds = %54
  store i8 1, ptr %5, align 1
  %59 = load i8, ptr %5, align 1
  %60 = trunc i8 %59 to i1
  %61 = zext i1 %60 to i8
  store i8 %61, ptr %5, align 1
  br label %62

62:                                               ; preds = %58
  br label %63

63:                                               ; preds = %62
  store i32 -1, ptr %4, align 4
  br label %107

64:                                               ; No predecessors!
  br label %65

65:                                               ; preds = %64
  br label %66

66:                                               ; preds = %65, %39
  br label %67

67:                                               ; preds = %66, %32
  %68 = load ptr, ptr %3, align 8
  %69 = load ptr, ptr %68, align 8
  %70 = getelementptr inbounds %struct.H5CX_node_t, ptr %69, i32 0, i32 0
  %71 = getelementptr inbounds %struct.H5CX_t, ptr %70, i32 0, i32 1
  %72 = load ptr, ptr %71, align 8
  %73 = load ptr, ptr %3, align 8
  %74 = load ptr, ptr %73, align 8
  %75 = getelementptr inbounds %struct.H5CX_node_t, ptr %74, i32 0, i32 0
  %76 = getelementptr inbounds %struct.H5CX_t, ptr %75, i32 0, i32 40
  %77 = call i32 @H5P_get(ptr noundef %72, ptr noundef @.str.29, ptr noundef %76)
  %78 = icmp slt i32 %77, 0
  br i1 %78, label %79, label %94

79:                                               ; preds = %67
  br label %80

80:                                               ; preds = %79
  br label %81

81:                                               ; preds = %80
  br label %82

82:                                               ; preds = %81
  %83 = load i64, ptr @H5E_CONTEXT_g, align 8
  %84 = load i64, ptr @H5E_CANTGET_g, align 8
  %85 = call i32 (ptr, ptr, i32, i64, i64, ptr, ...) @H5E_printf_stack(ptr noundef @.str, ptr noundef @__func__.H5CX_get_no_selection_io_cause, i32 noundef 2542, i64 noundef %83, i64 noundef %84, ptr noundef @.str.75)
  br label %86

86:                                               ; preds = %82
  store i8 1, ptr %5, align 1
  %87 = load i8, ptr %5, align 1
  %88 = trunc i8 %87 to i1
  %89 = zext i1 %88 to i8
  store i8 %89, ptr %5, align 1
  br label %90

90:                                               ; preds = %86
  br label %91

91:                                               ; preds = %90
  store i32 -1, ptr %4, align 4
  br label %107

92:                                               ; No predecessors!
  br label %93

93:                                               ; preds = %92
  br label %94

94:                                               ; preds = %93, %67
  br label %95

95:                                               ; preds = %94, %27
  %96 = load ptr, ptr %3, align 8
  %97 = load ptr, ptr %96, align 8
  %98 = getelementptr inbounds %struct.H5CX_node_t, ptr %97, i32 0, i32 0
  %99 = getelementptr inbounds %struct.H5CX_t, ptr %98, i32 0, i32 42
  store i8 1, ptr %99, align 1
  br label %100

100:                                              ; preds = %95, %12, %1
  %101 = load ptr, ptr %3, align 8
  %102 = load ptr, ptr %101, align 8
  %103 = getelementptr inbounds %struct.H5CX_node_t, ptr %102, i32 0, i32 0
  %104 = getelementptr inbounds %struct.H5CX_t, ptr %103, i32 0, i32 40
  %105 = load i32, ptr %104, align 4
  %106 = load ptr, ptr %2, align 8
  store i32 %105, ptr %106, align 4
  br label %107

107:                                              ; preds = %100, %91, %63
  %108 = load i32, ptr %4, align 4
  ret i32 %108
}