; Function Attrs: nounwind uwtable
define range(i32 -1, 1) i32 @H5CX_get_no_selection_io_cause(ptr nocapture noundef writeonly %0) local_unnamed_addr #0 {
  %2 = load ptr, ptr @H5CX_head_g, align 8
  %3 = getelementptr inbounds i8, ptr %2, i64 337
  %4 = load i8, ptr %3, align 1
  %5 = trunc i8 %4 to i1
  br i1 %5, label %43, label %6

6:                                                ; preds = %1
  %7 = getelementptr inbounds i8, ptr %2, i64 336
  %8 = load i8, ptr %7, align 8
  %9 = trunc i8 %8 to i1
  br i1 %9, label %43, label %10

10:                                               ; preds = %6
  %11 = load i64, ptr %2, align 8
  %12 = load i64, ptr @H5P_LST_DATASET_XFER_ID_g, align 8
  %13 = icmp eq i64 %11, %12
  br i1 %13, label %14, label %17

14:                                               ; preds = %10
  %15 = getelementptr inbounds i8, ptr %2, i64 332
  %16 = load i32, ptr getelementptr inbounds (i8, ptr @H5CX_def_dxpl_cache, i64 148), align 4
  store i32 %16, ptr %15, align 4
  br label %40

17:                                               ; preds = %10
  %18 = getelementptr inbounds i8, ptr %2, i64 8
  %19 = load ptr, ptr %18, align 8
  %20 = icmp eq ptr %19, null
  br i1 %20, label %21, label %30

21:                                               ; preds = %17
  %22 = tail call ptr @H5I_object(i64 noundef %11) #13
  %23 = load ptr, ptr @H5CX_head_g, align 8
  %24 = getelementptr inbounds i8, ptr %23, i64 8
  store ptr %22, ptr %24, align 8
  %25 = icmp eq ptr %22, null
  br i1 %25, label %26, label %30

26:                                               ; preds = %21
  %27 = load i64, ptr @H5E_CONTEXT_g, align 8
  %28 = load i64, ptr @H5E_BADTYPE_g, align 8
  %29 = tail call i32 (ptr, ptr, i32, i64, i64, ptr, ...) @H5E_printf_stack(ptr noundef nonnull @.str, ptr noundef nonnull @__func__.H5CX_get_no_selection_io_cause, i32 noundef 2542, i64 noundef %27, i64 noundef %28, ptr noundef nonnull @.str.56) #13
  br label %47

30:                                               ; preds = %21, %17
  %31 = phi ptr [ %22, %21 ], [ %19, %17 ]
  %32 = phi ptr [ %23, %21 ], [ %2, %17 ]
  %33 = getelementptr inbounds i8, ptr %32, i64 332
  %34 = tail call i32 @H5P_get(ptr noundef nonnull %31, ptr noundef nonnull @.str.29, ptr noundef nonnull %33) #13
  %35 = icmp slt i32 %34, 0
  br i1 %35, label %36, label %._crit_edge

._crit_edge:                                      ; preds = %30
  %.pre = load ptr, ptr @H5CX_head_g, align 8
  br label %40

36:                                               ; preds = %30
  %37 = load i64, ptr @H5E_CONTEXT_g, align 8
  %38 = load i64, ptr @H5E_CANTGET_g, align 8
  %39 = tail call i32 (ptr, ptr, i32, i64, i64, ptr, ...) @H5E_printf_stack(ptr noundef nonnull @.str, ptr noundef nonnull @__func__.H5CX_get_no_selection_io_cause, i32 noundef 2542, i64 noundef %37, i64 noundef %38, ptr noundef nonnull @.str.75) #13
  br label %47

40:                                               ; preds = %._crit_edge, %14
  %41 = phi ptr [ %.pre, %._crit_edge ], [ %2, %14 ]
  %42 = getelementptr inbounds i8, ptr %41, i64 337
  store i8 1, ptr %42, align 1
  br label %43

43:                                               ; preds = %40, %6, %1
  %44 = phi ptr [ %41, %40 ], [ %2, %6 ], [ %2, %1 ]
  %45 = getelementptr inbounds i8, ptr %44, i64 332
  %46 = load i32, ptr %45, align 4
  store i32 %46, ptr %0, align 4
  br label %47

47:                                               ; preds = %43, %36, %26
  %.0 = phi i32 [ 0, %43 ], [ -1, %26 ], [ -1, %36 ]
  ret i32 %.0
}